; Function Attrs: mustprogress nofree norecurse nosync nounwind willreturn memory(argmem: write) uwtable
define dso_local void @LZ4_resetStreamHC(ptr noundef %0, i32 noundef %1) local_unnamed_addr #7 {
  %3 = icmp ne ptr %0, null
  %4 = ptrtoint ptr %0 to i64
  %5 = and i64 %4, 7
  %.not.i = icmp eq i64 %5, 0
  %or.cond10.i = and i1 %3, %.not.i
  br i1 %or.cond10.i, label %6, label %LZ4_initStreamHC.exit

6:                                                ; preds = %2
  tail call void @llvm.memset.p0.i64(ptr noundef nonnull align 8 dereferenceable(262192) %0, i8 0, i64 262192, i1 false)
  br label %LZ4_initStreamHC.exit

LZ4_initStreamHC.exit:                            ; preds = %2, %6
  %7 = icmp slt i32 %1, 1
  %8 = tail call i32 @llvm.umin.i32(i32 %1, i32 12)
  %9 = trunc nuw nsw i32 %8 to i16
  %10 = select i1 %7, i16 9, i16 %9
  %11 = getelementptr inbounds nuw i8, ptr %0, i64 262180
  store i16 %10, ptr %11, align 4, !tbaa !26
  ret void
}